target datalayout = "e-m:e-p270:32:32-p271:32:32-p272:64:64-i64:64-i128:128-f80:128-n8:16:32:64-S128"
target triple = "x86_64-pc-linux-gnu"

%struct.pmi2_job_info = type { %struct.slurm_step_id_msg, i32, i32, i32, i32, i32, ptr, i32, i32, ptr, ptr, ptr, ptr, ptr, ptr, ptr, ptr }
%struct.slurm_step_id_msg = type { i64, i32, i32, i32 }
%struct.client_response = type { ptr }

@plugin_type = external constant [0 x i8], align 1
@.str.28 = private unnamed_addr constant [35 x i8] c"%s: %s: mpi/pmi2: _handle_fullinit\00", align 1
@__func__._handle_fullinit = private unnamed_addr constant [17 x i8] c"_handle_fullinit\00", align 1
@.str.29 = private unnamed_addr constant [9 x i8] c"pmijobid\00", align 1
@.str.30 = private unnamed_addr constant [37 x i8] c"pmijobid missing in fullinit command\00", align 1
@.str.31 = private unnamed_addr constant [8 x i8] c"pmirank\00", align 1
@.str.32 = private unnamed_addr constant [36 x i8] c"pmirank missing in fullinit command\00", align 1
@.str.33 = private unnamed_addr constant [9 x i8] c"threaded\00", align 1
@.str.34 = private unnamed_addr constant [37 x i8] c"threaded missing in fullinit command\00", align 1
@.str.35 = private unnamed_addr constant [117 x i8] c"cmd=fullinit-response;rc=%d;pmi-version=%d;pmi-subversion=%d;rank=%d;size=%d;appnum=-1;debugged=FALSE;pmiverbose=%s;\00", align 1
@job_info = external global %struct.pmi2_job_info, align 8
@.str.36 = private unnamed_addr constant [5 x i8] c"TRUE\00", align 1
@.str.37 = private unnamed_addr constant [6 x i8] c"FALSE\00", align 1
@.str.38 = private unnamed_addr constant [18 x i8] c"spawner-jobid=%s;\00", align 1
@.str.39 = private unnamed_addr constant [32 x i8] c"%s: %s: mpi/pmi2: fullinit done\00", align 1

; Function Attrs: nounwind uwtable
define internal i32 @_handle_fullinit(i32 noundef %0, i32 noundef %1, ptr noundef %2) #0 {
  %4 = alloca i32, align 4
  %5 = alloca i32, align 4
  %6 = alloca ptr, align 8
  %7 = alloca i32, align 4
  %8 = alloca i32, align 4
  %9 = alloca i8, align 1
  %10 = alloca i32, align 4
  %11 = alloca i32, align 4
  %12 = alloca ptr, align 8
  store i32 %0, ptr %4, align 4
  store i32 %1, ptr %5, align 4
  store ptr %2, ptr %6, align 8
  call void @llvm.lifetime.start.p0(i64 4, ptr %7) #6
  call void @llvm.lifetime.start.p0(i64 4, ptr %8) #6
  call void @llvm.lifetime.start.p0(i64 1, ptr %9) #6
  call void @llvm.lifetime.start.p0(i64 4, ptr %10) #6
  call void @llvm.lifetime.start.p0(i64 4, ptr %11) #6
  store i32 0, ptr %11, align 4
  call void @llvm.lifetime.start.p0(i64 8, ptr %12) #6
  br label %13

13:                                               ; preds = %3
  br label %14

14:                                               ; preds = %13
  %15 = call i32 @slurm_get_log_level()
  %16 = icmp sge i32 %15, 7
  br i1 %16, label %17, label %18

17:                                               ; preds = %14
  call void (i32, ptr, ...) @slurm_log_var(i32 noundef 7, ptr noundef @.str.28, ptr noundef @plugin_type, ptr noundef @__func__._handle_fullinit)
  br label %18

18:                                               ; preds = %17, %14
  br label %19

19:                                               ; preds = %18
  br label %20

20:                                               ; preds = %19
  br label %21

21:                                               ; preds = %20
  br label %22

22:                                               ; preds = %21
  %23 = load ptr, ptr %6, align 8
  %24 = call i32 @client_req_parse_body(ptr noundef %23)
  %25 = load ptr, ptr %6, align 8
  %26 = call zeroext i1 @client_req_get_int(ptr noundef %25, ptr noundef @.str.29, ptr noundef %7)
  %27 = zext i1 %26 to i32
  store i32 %27, ptr %10, align 4
  %28 = load i32, ptr %10, align 4
  %29 = icmp ne i32 %28, 0
  br i1 %29, label %32, label %30

30:                                               ; preds = %22
  %31 = call i32 (ptr, ...) @slurm_error(ptr noundef @.str.30)
  store i32 3, ptr %11, align 4
  br label %49

32:                                               ; preds = %22
  %33 = load ptr, ptr %6, align 8
  %34 = call zeroext i1 @client_req_get_int(ptr noundef %33, ptr noundef @.str.31, ptr noundef %8)
  %35 = zext i1 %34 to i32
  store i32 %35, ptr %10, align 4
  %36 = load i32, ptr %10, align 4
  %37 = icmp ne i32 %36, 0
  br i1 %37, label %40, label %38

38:                                               ; preds = %32
  %39 = call i32 (ptr, ...) @slurm_error(ptr noundef @.str.32)
  store i32 3, ptr %11, align 4
  br label %49

40:                                               ; preds = %32
  %41 = load ptr, ptr %6, align 8
  %42 = call zeroext i1 @client_req_get_bool(ptr noundef %41, ptr noundef @.str.33, ptr noundef %9)
  %43 = zext i1 %42 to i32
  store i32 %43, ptr %10, align 4
  %44 = load i32, ptr %10, align 4
  %45 = icmp ne i32 %44, 0
  br i1 %45, label %48, label %46

46:                                               ; preds = %40
  %47 = call i32 (ptr, ...) @slurm_error(ptr noundef @.str.34)
  store i32 3, ptr %11, align 4
  br label %49

48:                                               ; preds = %40
  br label %49

49:                                               ; preds = %48, %46, %38, %30
  %50 = call ptr @client_resp_new()
  store ptr %50, ptr %12, align 8
  br label %51

51:                                               ; preds = %49
  %52 = load ptr, ptr %12, align 8
  %53 = getelementptr inbounds nuw %struct.client_response, ptr %52, i32 0, i32 0
  %54 = load i32, ptr %11, align 4
  %55 = load ptr, ptr getelementptr inbounds nuw (%struct.pmi2_job_info, ptr @job_info, i32 0, i32 6), align 8
  %56 = load i32, ptr %5, align 4
  %57 = sext i32 %56 to i64
  %58 = getelementptr inbounds i32, ptr %55, i64 %57
  %59 = load i32, ptr %58, align 4
  %60 = load i32, ptr getelementptr inbounds nuw (%struct.pmi2_job_info, ptr @job_info, i32 0, i32 4), align 4
  %61 = load i32, ptr getelementptr inbounds nuw (%struct.pmi2_job_info, ptr @job_info, i32 0, i32 8), align 4
  %62 = icmp ne i32 %61, 0
  %63 = select i1 %62, ptr @.str.36, ptr @.str.37
  call void (ptr, ptr, ...) @slurm_xstrfmtcat(ptr noundef %53, ptr noundef @.str.35, i32 noundef %54, i32 noundef 2, i32 noundef 0, i32 noundef %59, i32 noundef %60, ptr noundef %63)
  br label %64

64:                                               ; preds = %51
  br label %65

65:                                               ; preds = %64
  %66 = load ptr, ptr getelementptr inbounds nuw (%struct.pmi2_job_info, ptr @job_info, i32 0, i32 12), align 8
  %67 = icmp ne ptr %66, null
  br i1 %67, label %68, label %75

68:                                               ; preds = %65
  br label %69

69:                                               ; preds = %68
  %70 = load ptr, ptr %12, align 8
  %71 = getelementptr inbounds nuw %struct.client_response, ptr %70, i32 0, i32 0
  %72 = load ptr, ptr getelementptr inbounds nuw (%struct.pmi2_job_info, ptr @job_info, i32 0, i32 12), align 8
  call void (ptr, ptr, ...) @slurm_xstrfmtcat(ptr noundef %71, ptr noundef @.str.38, ptr noundef %72)
  br label %73

73:                                               ; preds = %69
  br label %74

74:                                               ; preds = %73
  br label %75

75:                                               ; preds = %74, %65
  %76 = load ptr, ptr %12, align 8
  %77 = load i32, ptr %4, align 4
  %78 = call i32 @client_resp_send(ptr noundef %76, i32 noundef %77)
  store i32 %78, ptr %11, align 4
  %79 = load ptr, ptr %12, align 8
  call void @client_resp_free(ptr noundef %79)
  br label %80

80:                                               ; preds = %75
  br label %81

81:                                               ; preds = %80
  %82 = call i32 @slurm_get_log_level()
  %83 = icmp sge i32 %82, 7
  br i1 %83, label %84, label %85

84:                                               ; preds = %81
  call void (i32, ptr, ...) @slurm_log_var(i32 noundef 7, ptr noundef @.str.39, ptr noundef @plugin_type, ptr noundef @__func__._handle_fullinit)
  br label %85

85:                                               ; preds = %84, %81
  br label %86

86:                                               ; preds = %85
  br label %87

87:                                               ; preds = %86
  br label %88

88:                                               ; preds = %87
  br label %89

89:                                               ; preds = %88
  %90 = load i32, ptr %11, align 4
  call void @llvm.lifetime.end.p0(i64 8, ptr %12) #6
  call void @llvm.lifetime.end.p0(i64 4, ptr %11) #6
  call void @llvm.lifetime.end.p0(i64 4, ptr %10) #6
  call void @llvm.lifetime.end.p0(i64 1, ptr %9) #6
  call void @llvm.lifetime.end.p0(i64 4, ptr %8) #6
  call void @llvm.lifetime.end.p0(i64 4, ptr %7) #6
  ret i32 %90
}