; Function Attrs: nounwind uwtable
define internal i32 @_handle_fullinit(i32 noundef %0, i32 noundef %1, ptr noundef %2) #0 {
  %4 = alloca i32, align 4
  %5 = alloca i32, align 4
  %6 = alloca i8, align 1
  call void @llvm.lifetime.start.p0(i64 4, ptr nonnull %4) #7
  call void @llvm.lifetime.start.p0(i64 4, ptr nonnull %5) #7
  call void @llvm.lifetime.start.p0(i64 1, ptr nonnull %6) #7
  %7 = tail call i32 @slurm_get_log_level() #7
  %8 = icmp sgt i32 %7, 6
  br i1 %8, label %9, label %10

9:                                                ; preds = %3
  tail call void (i32, ptr, ...) @slurm_log_var(i32 noundef 7, ptr noundef nonnull @.str.28, ptr noundef nonnull @plugin_type, ptr noundef nonnull @__func__._handle_fullinit) #7
  br label %10

10:                                               ; preds = %9, %3
  %11 = tail call i32 @client_req_parse_body(ptr noundef %2) #7
  %12 = call zeroext i1 @client_req_get_int(ptr noundef %2, ptr noundef nonnull @.str.29, ptr noundef nonnull %4) #7
  br i1 %12, label %13, label %.sink.split

13:                                               ; preds = %10
  %14 = call zeroext i1 @client_req_get_int(ptr noundef %2, ptr noundef nonnull @.str.31, ptr noundef nonnull %5) #7
  br i1 %14, label %15, label %.sink.split

15:                                               ; preds = %13
  %16 = call zeroext i1 @client_req_get_bool(ptr noundef %2, ptr noundef nonnull @.str.33, ptr noundef nonnull %6) #7
  br i1 %16, label %18, label %.sink.split

.sink.split:                                      ; preds = %15, %13, %10
  %.str.34.sink = phi ptr [ @.str.30, %10 ], [ @.str.32, %13 ], [ @.str.34, %15 ]
  %17 = call i32 (ptr, ...) @slurm_error(ptr noundef nonnull %.str.34.sink) #7
  br label %18

18:                                               ; preds = %.sink.split, %15
  %.0 = phi i32 [ 0, %15 ], [ 3, %.sink.split ]
  %19 = call ptr @client_resp_new() #7
  %20 = load ptr, ptr getelementptr inbounds nuw (i8, ptr @job_info, i64 48), align 8
  %21 = sext i32 %1 to i64
  %22 = getelementptr inbounds i32, ptr %20, i64 %21
  %23 = load i32, ptr %22, align 4
  %24 = load i32, ptr getelementptr inbounds nuw (i8, ptr @job_info, i64 36), align 4
  %25 = load i32, ptr getelementptr inbounds nuw (i8, ptr @job_info, i64 60), align 4
  %.not = icmp eq i32 %25, 0
  %26 = select i1 %.not, ptr @.str.37, ptr @.str.36
  call void (ptr, ptr, ...) @slurm_xstrfmtcat(ptr noundef %19, ptr noundef nonnull @.str.35, i32 noundef %.0, i32 noundef 2, i32 noundef 0, i32 noundef %23, i32 noundef %24, ptr noundef nonnull %26) #7
  %27 = load ptr, ptr getelementptr inbounds nuw (i8, ptr @job_info, i64 88), align 8
  %.not15 = icmp eq ptr %27, null
  br i1 %.not15, label %29, label %28

28:                                               ; preds = %18
  call void (ptr, ptr, ...) @slurm_xstrfmtcat(ptr noundef %19, ptr noundef nonnull @.str.38, ptr noundef nonnull %27) #7
  br label %29

29:                                               ; preds = %28, %18
  %30 = call i32 @client_resp_send(ptr noundef %19, i32 noundef %0) #7
  call void @client_resp_free(ptr noundef %19) #7
  %31 = call i32 @slurm_get_log_level() #7
  %32 = icmp sgt i32 %31, 6
  br i1 %32, label %33, label %34

33:                                               ; preds = %29
  call void (i32, ptr, ...) @slurm_log_var(i32 noundef 7, ptr noundef nonnull @.str.39, ptr noundef nonnull @plugin_type, ptr noundef nonnull @__func__._handle_fullinit) #7
  br label %34

34:                                               ; preds = %33, %29
  call void @llvm.lifetime.end.p0(i64 1, ptr nonnull %6) #7
  call void @llvm.lifetime.end.p0(i64 4, ptr nonnull %5) #7
  call void @llvm.lifetime.end.p0(i64 4, ptr nonnull %4) #7
  ret i32 %30
}